target datalayout = "e-m:e-p270:32:32-p271:32:32-p272:64:64-i64:64-i128:128-f80:128-n8:16:32:64-S128"
target triple = "x86_64-pc-linux-gnu"

; Function Attrs: mustprogress uwtable
define dso_local void @_ZN4Luau7CodeGen19translateInstLoadKXERNS0_9IrBuilderEPKj(ptr noundef nonnull align 8 dereferenceable(752) %0, ptr noundef %1) #0 {
  %3 = alloca ptr, align 8
  %4 = alloca ptr, align 8
  store ptr %0, ptr %3, align 8, !tbaa !4
  store ptr %1, ptr %4, align 8, !tbaa !9
  %5 = load ptr, ptr %3, align 8, !tbaa !4
  %6 = load ptr, ptr %4, align 8, !tbaa !9
  %7 = load i32, ptr %6, align 4, !tbaa !11
  %8 = lshr i32 %7, 8
  %9 = and i32 %8, 255
  %10 = load ptr, ptr %4, align 8, !tbaa !9
  %11 = getelementptr inbounds i32, ptr %10, i64 1
  %12 = load i32, ptr %11, align 4, !tbaa !11
  call void @_ZN4Luau7CodeGenL25translateInstLoadConstantERNS0_9IrBuilderEii(ptr noundef nonnull align 8 dereferenceable(752) %5, i32 noundef %9, i32 noundef %12)
  ret void
}