; Function Attrs: mustprogress uwtable
define dso_local void @_ZN4Luau7CodeGen19translateInstLoadKXERNS0_9IrBuilderEPKj(ptr noundef nonnull align 8 dereferenceable(752) %0, ptr noundef readonly captures(none) %1) local_unnamed_addr #0 {
  %3 = load i32, ptr %1, align 4, !tbaa !4
  %4 = lshr i32 %3, 8
  %5 = and i32 %4, 255
  %6 = getelementptr inbounds nuw i8, ptr %1, i64 4
  %7 = load i32, ptr %6, align 4, !tbaa !4
  tail call fastcc void @_ZN4Luau7CodeGenL25translateInstLoadConstantERNS0_9IrBuilderEii(ptr noundef nonnull align 8 dereferenceable(752) %0, i32 noundef %5, i32 noundef %7)
  ret void
}